target datalayout = "e-m:e-p270:32:32-p271:32:32-p272:64:64-i64:64-i128:128-f80:128-n8:16:32:64-S128"
target triple = "x86_64-pc-linux-gnu"

%struct.uv_loop_s = type { ptr, i32, %struct.uv__queue, %union.anon, ptr, i32, i64, i32, %struct.uv__queue, %struct.uv__queue, ptr, i32, i32, %struct.uv__queue, %union.pthread_mutex_t, %struct.uv_async_s, %union.pthread_rwlock_t, ptr, %struct.uv__queue, %struct.uv__queue, %struct.uv__queue, %struct.uv__queue, %struct.uv__queue, ptr, %struct.uv__io_s, i32, %struct.anon, i64, i64, [2 x i32], %struct.uv__io_s, %struct.uv_signal_s, i32, %struct.uv__io_s, ptr, i32 }
%union.anon = type { ptr }
%union.pthread_mutex_t = type { %struct.__pthread_mutex_s }
%struct.__pthread_mutex_s = type { i32, i32, i32, i32, i32, i16, i16, %struct.__pthread_internal_list }
%struct.__pthread_internal_list = type { ptr, ptr }
%struct.uv_async_s = type { ptr, ptr, i32, ptr, %struct.uv__queue, %union.anon.0, ptr, i32, ptr, %struct.uv__queue, i32 }
%union.anon.0 = type { [4 x ptr] }
%union.pthread_rwlock_t = type { %struct.__pthread_rwlock_arch_t }
%struct.__pthread_rwlock_arch_t = type { i32, i32, i32, i32, i32, i32, i32, i32, i8, [7 x i8], i64, i32 }
%struct.uv__queue = type { ptr, ptr }
%struct.anon = type { ptr, i32 }
%struct.uv_signal_s = type { ptr, ptr, i32, ptr, %struct.uv__queue, %union.anon.1, ptr, i32, ptr, i32, %struct.anon.2, i32, i32 }
%union.anon.1 = type { [4 x ptr] }
%struct.anon.2 = type { ptr, ptr, ptr, i32 }
%struct.uv__io_s = type { ptr, %struct.uv__queue, %struct.uv__queue, i32, i32, i32 }
%struct.watcher_root = type { ptr }
%struct.watcher_list = type { %struct.anon.13, %struct.uv__queue, i32, ptr, i32 }
%struct.anon.13 = type { ptr, ptr, ptr, i32 }
%struct.uv_fs_event_s = type { ptr, ptr, i32, ptr, %struct.uv__queue, %union.anon.11, ptr, i32, ptr, ptr, %struct.uv__queue, i32 }
%union.anon.11 = type { [4 x ptr] }

; Function Attrs: nounwind uwtable
define internal i32 @compare_watchers(ptr noundef %0, ptr noundef %1) #0 {
  %3 = alloca i32, align 4
  %4 = alloca ptr, align 8
  %5 = alloca ptr, align 8
  store ptr %0, ptr %4, align 8
  store ptr %1, ptr %5, align 8
  %6 = load ptr, ptr %4, align 8
  %7 = getelementptr inbounds nuw %struct.watcher_list, ptr %6, i32 0, i32 4
  %8 = load i32, ptr %7, align 8
  %9 = load ptr, ptr %5, align 8
  %10 = getelementptr inbounds nuw %struct.watcher_list, ptr %9, i32 0, i32 4
  %11 = load i32, ptr %10, align 8
  %12 = icmp slt i32 %8, %11
  br i1 %12, label %13, label %14

13:                                               ; preds = %2
  store i32 -1, ptr %3, align 4
  br label %24

14:                                               ; preds = %2
  %15 = load ptr, ptr %4, align 8
  %16 = getelementptr inbounds nuw %struct.watcher_list, ptr %15, i32 0, i32 4
  %17 = load i32, ptr %16, align 8
  %18 = load ptr, ptr %5, align 8
  %19 = getelementptr inbounds nuw %struct.watcher_list, ptr %18, i32 0, i32 4
  %20 = load i32, ptr %19, align 8
  %21 = icmp sgt i32 %17, %20
  br i1 %21, label %22, label %23

22:                                               ; preds = %14
  store i32 1, ptr %3, align 4
  br label %24

23:                                               ; preds = %14
  store i32 0, ptr %3, align 4
  br label %24

24:                                               ; preds = %23, %22, %13
  %25 = load i32, ptr %3, align 4
  ret i32 %25
}

; Function Attrs: nounwind uwtable
define internal ptr @watcher_root_RB_FIND(ptr noundef %0, ptr noundef %1) #0 {
  %3 = alloca ptr, align 8
  %4 = alloca ptr, align 8
  %5 = alloca ptr, align 8
  %6 = alloca ptr, align 8
  %7 = alloca i32, align 4
  %8 = alloca i32, align 4
  store ptr %0, ptr %4, align 8
  store ptr %1, ptr %5, align 8
  call void @llvm.lifetime.start.p0(i64 8, ptr %6) #12
  %9 = load ptr, ptr %4, align 8
  %10 = getelementptr inbounds nuw %struct.watcher_root, ptr %9, i32 0, i32 0
  %11 = load ptr, ptr %10, align 8
  store ptr %11, ptr %6, align 8
  call void @llvm.lifetime.start.p0(i64 4, ptr %7) #12
  br label %12

12:                                               ; preds = %37, %2
  %13 = load ptr, ptr %6, align 8
  %14 = icmp ne ptr %13, null
  br i1 %14, label %15, label %38

15:                                               ; preds = %12
  %16 = load ptr, ptr %5, align 8
  %17 = load ptr, ptr %6, align 8
  %18 = call i32 @compare_watchers(ptr noundef %16, ptr noundef %17)
  store i32 %18, ptr %7, align 4
  %19 = load i32, ptr %7, align 4
  %20 = icmp slt i32 %19, 0
  br i1 %20, label %21, label %26

21:                                               ; preds = %15
  %22 = load ptr, ptr %6, align 8
  %23 = getelementptr inbounds nuw %struct.watcher_list, ptr %22, i32 0, i32 0
  %24 = getelementptr inbounds nuw %struct.anon.13, ptr %23, i32 0, i32 0
  %25 = load ptr, ptr %24, align 8
  store ptr %25, ptr %6, align 8
  br label %37

26:                                               ; preds = %15
  %27 = load i32, ptr %7, align 4
  %28 = icmp sgt i32 %27, 0
  br i1 %28, label %29, label %34

29:                                               ; preds = %26
  %30 = load ptr, ptr %6, align 8
  %31 = getelementptr inbounds nuw %struct.watcher_list, ptr %30, i32 0, i32 0
  %32 = getelementptr inbounds nuw %struct.anon.13, ptr %31, i32 0, i32 1
  %33 = load ptr, ptr %32, align 8
  store ptr %33, ptr %6, align 8
  br label %36

34:                                               ; preds = %26
  %35 = load ptr, ptr %6, align 8
  store ptr %35, ptr %3, align 8
  store i32 1, ptr %8, align 4
  br label %39

36:                                               ; preds = %29
  br label %37

37:                                               ; preds = %36, %21
  br label %12

38:                                               ; preds = %12
  store ptr null, ptr %3, align 8
  store i32 1, ptr %8, align 4
  br label %39

39:                                               ; preds = %38, %34
  call void @llvm.lifetime.end.p0(i64 4, ptr %7) #12
  call void @llvm.lifetime.end.p0(i64 8, ptr %6) #12
  %40 = load ptr, ptr %3, align 8
  ret ptr %40
}

; Function Attrs: nounwind uwtable
define internal ptr @uv__inotify_watchers(ptr noundef %0) #0 {
  %2 = alloca ptr, align 8
  store ptr %0, ptr %2, align 8
  %3 = load ptr, ptr %2, align 8
  %4 = getelementptr inbounds nuw %struct.uv_loop_s, ptr %3, i32 0, i32 34
  ret ptr %4
}

; Function Attrs: inlinehint nounwind uwtable
define internal void @uv__queue_remove(ptr noundef %0) #9 {
  %2 = alloca ptr, align 8
  store ptr %0, ptr %2, align 8
  %3 = load ptr, ptr %2, align 8
  %4 = getelementptr inbounds nuw %struct.uv__queue, ptr %3, i32 0, i32 0
  %5 = load ptr, ptr %4, align 8
  %6 = load ptr, ptr %2, align 8
  %7 = getelementptr inbounds nuw %struct.uv__queue, ptr %6, i32 0, i32 1
  %8 = load ptr, ptr %7, align 8
  %9 = getelementptr inbounds nuw %struct.uv__queue, ptr %8, i32 0, i32 0
  store ptr %5, ptr %9, align 8
  %10 = load ptr, ptr %2, align 8
  %11 = getelementptr inbounds nuw %struct.uv__queue, ptr %10, i32 0, i32 1
  %12 = load ptr, ptr %11, align 8
  %13 = load ptr, ptr %2, align 8
  %14 = getelementptr inbounds nuw %struct.uv__queue, ptr %13, i32 0, i32 0
  %15 = load ptr, ptr %14, align 8
  %16 = getelementptr inbounds nuw %struct.uv__queue, ptr %15, i32 0, i32 1
  store ptr %12, ptr %16, align 8
  ret void
}

; Function Attrs: nounwind uwtable
define internal ptr @find_watcher(ptr noundef %0, i32 noundef %1) #0 {
  %3 = alloca ptr, align 8
  %4 = alloca i32, align 4
  %5 = alloca %struct.watcher_list, align 8
  store ptr %0, ptr %3, align 8
  store i32 %1, ptr %4, align 4
  call void @llvm.lifetime.start.p0(i64 72, ptr %5) #12
  %6 = load i32, ptr %4, align 4
  %7 = getelementptr inbounds nuw %struct.watcher_list, ptr %5, i32 0, i32 4
  store i32 %6, ptr %7, align 8
  %8 = load ptr, ptr %3, align 8
  %9 = call ptr @uv__inotify_watchers(ptr noundef %8)
  %10 = call ptr @watcher_root_RB_FIND(ptr noundef %9, ptr noundef %5)
  call void @llvm.lifetime.end.p0(i64 72, ptr %5) #12
  ret ptr %10
}

; Function Attrs: nounwind uwtable
define dso_local i32 @uv_fs_event_stop(ptr noundef %0) #0 {
  %2 = alloca i32, align 4
  %3 = alloca ptr, align 8
  %4 = alloca ptr, align 8
  %5 = alloca i32, align 4
  store ptr %0, ptr %3, align 8
  call void @llvm.lifetime.start.p0(i64 8, ptr %4) #12
  %6 = load ptr, ptr %3, align 8
  %7 = getelementptr inbounds nuw %struct.uv_fs_event_s, ptr %6, i32 0, i32 7
  %8 = load i32, ptr %7, align 8
  %9 = and i32 %8, 4
  %10 = icmp ne i32 %9, 0
  br i1 %10, label %12, label %11

11:                                               ; preds = %1
  store i32 0, ptr %2, align 4
  store i32 1, ptr %5, align 4
  br label %60

12:                                               ; preds = %1
  %13 = load ptr, ptr %3, align 8
  %14 = getelementptr inbounds nuw %struct.uv_fs_event_s, ptr %13, i32 0, i32 1
  %15 = load ptr, ptr %14, align 8
  %16 = load ptr, ptr %3, align 8
  %17 = getelementptr inbounds nuw %struct.uv_fs_event_s, ptr %16, i32 0, i32 11
  %18 = load i32, ptr %17, align 8
  %19 = call ptr @find_watcher(ptr noundef %15, i32 noundef %18)
  store ptr %19, ptr %4, align 8
  %20 = load ptr, ptr %3, align 8
  %21 = getelementptr inbounds nuw %struct.uv_fs_event_s, ptr %20, i32 0, i32 11
  store i32 -1, ptr %21, align 8
  %22 = load ptr, ptr %3, align 8
  %23 = getelementptr inbounds nuw %struct.uv_fs_event_s, ptr %22, i32 0, i32 8
  store ptr null, ptr %23, align 8
  br label %24

24:                                               ; preds = %12
  %25 = load ptr, ptr %3, align 8
  %26 = getelementptr inbounds nuw %struct.uv_fs_event_s, ptr %25, i32 0, i32 7
  %27 = load i32, ptr %26, align 8
  %28 = and i32 %27, 4
  %29 = icmp eq i32 %28, 0
  br i1 %29, label %30, label %31

30:                                               ; preds = %24
  br label %53

31:                                               ; preds = %24
  %32 = load ptr, ptr %3, align 8
  %33 = getelementptr inbounds nuw %struct.uv_fs_event_s, ptr %32, i32 0, i32 7
  %34 = load i32, ptr %33, align 8
  %35 = and i32 %34, -5
  store i32 %35, ptr %33, align 8
  %36 = load ptr, ptr %3, align 8
  %37 = getelementptr inbounds nuw %struct.uv_fs_event_s, ptr %36, i32 0, i32 7
  %38 = load i32, ptr %37, align 8
  %39 = and i32 %38, 8
  %40 = icmp ne i32 %39, 0
  br i1 %40, label %41, label %51

41:                                               ; preds = %31
  br label %42

42:                                               ; preds = %41
  %43 = load ptr, ptr %3, align 8
  %44 = getelementptr inbounds nuw %struct.uv_fs_event_s, ptr %43, i32 0, i32 1
  %45 = load ptr, ptr %44, align 8
  %46 = getelementptr inbounds nuw %struct.uv_loop_s, ptr %45, i32 0, i32 1
  %47 = load i32, ptr %46, align 8
  %48 = add i32 %47, -1
  store i32 %48, ptr %46, align 8
  br label %49

49:                                               ; preds = %42
  br label %50

50:                                               ; preds = %49
  br label %51

51:                                               ; preds = %50, %31
  br label %52

52:                                               ; preds = %51
  br label %53

53:                                               ; preds = %52, %30
  %54 = load ptr, ptr %3, align 8
  %55 = getelementptr inbounds nuw %struct.uv_fs_event_s, ptr %54, i32 0, i32 10
  call void @uv__queue_remove(ptr noundef %55)
  %56 = load ptr, ptr %4, align 8
  %57 = load ptr, ptr %3, align 8
  %58 = getelementptr inbounds nuw %struct.uv_fs_event_s, ptr %57, i32 0, i32 1
  %59 = load ptr, ptr %58, align 8
  call void @maybe_free_watcher_list(ptr noundef %56, ptr noundef %59)
  store i32 0, ptr %2, align 4
  store i32 1, ptr %5, align 4
  br label %60

60:                                               ; preds = %53, %11
  call void @llvm.lifetime.end.p0(i64 8, ptr %4) #12
  %61 = load i32, ptr %2, align 4
  ret i32 %61
}